; ModuleID = '46/3215.c'
source_filename = "46/3215.c"
target datalayout = "e-m:e-p270:32:32-p271:32:32-p272:64:64-i64:64-f80:128-n8:16:32:64-S128"
target triple = "x86_64-pc-linux-gnu"

@.str = private unnamed_addr constant [5 x i8] c"%d%d\00", align 1
@.str.1 = private unnamed_addr constant [3 x i8] c"%d\00", align 1
@.str.2 = private unnamed_addr constant [4 x i8] c"%d\0A\00", align 1

; Function Attrs: noinline nounwind uwtable
define dso_local void @main() #0 {
  %1 = alloca i32, align 4
  %2 = alloca i32, align 4
  %3 = alloca [100 x [100 x i32]], align 16
  %4 = alloca i32, align 4
  %5 = alloca i32, align 4
  %6 = call i32 (i8*, ...) @__isoc99_scanf(i8* getelementptr inbounds ([5 x i8], [5 x i8]* @.str, i64 0, i64 0), i32* %1, i32* %2)
  store i32 0, i32* %4, align 4
  br label %7

7:                                                ; preds = %28, %0
  %8 = load i32, i32* %4, align 4
  %9 = load i32, i32* %1, align 4
  %10 = icmp slt i32 %8, %9
  br i1 %10, label %11, label %31

11:                                               ; preds = %7
  store i32 0, i32* %5, align 4
  br label %12

12:                                               ; preds = %24, %11
  %13 = load i32, i32* %5, align 4
  %14 = load i32, i32* %2, align 4
  %15 = icmp slt i32 %13, %14
  br i1 %15, label %16, label %27

16:                                               ; preds = %12
  %17 = load i32, i32* %4, align 4
  %18 = sext i32 %17 to i64
  %19 = getelementptr inbounds [100 x [100 x i32]], [100 x [100 x i32]]* %3, i64 0, i64 %18
  %20 = load i32, i32* %5, align 4
  %21 = sext i32 %20 to i64
  %22 = getelementptr inbounds [100 x i32], [100 x i32]* %19, i64 0, i64 %21
  %23 = call i32 (i8*, ...) @__isoc99_scanf(i8* getelementptr inbounds ([3 x i8], [3 x i8]* @.str.1, i64 0, i64 0), i32* %22)
  br label %24

24:                                               ; preds = %16
  %25 = load i32, i32* %5, align 4
  %26 = add nsw i32 %25, 1
  store i32 %26, i32* %5, align 4
  br label %12

27:                                               ; preds = %12
  br label %28

28:                                               ; preds = %27
  %29 = load i32, i32* %4, align 4
  %30 = add nsw i32 %29, 1
  store i32 %30, i32* %4, align 4
  br label %7

31:                                               ; preds = %7
  store i32 1, i32* %5, align 4
  br label %32

32:                                               ; preds = %156, %31
  %33 = load i32, i32* %5, align 4
  %34 = load i32, i32* %2, align 4
  %35 = sdiv i32 %34, 2
  %36 = add nsw i32 %35, 1
  %37 = icmp sle i32 %33, %36
  br i1 %37, label %44, label %38

38:                                               ; preds = %32
  %39 = load i32, i32* %5, align 4
  %40 = load i32, i32* %1, align 4
  %41 = sdiv i32 %40, 2
  %42 = add nsw i32 %41, 1
  %43 = icmp sle i32 %39, %42
  br label %44

44:                                               ; preds = %38, %32
  %45 = phi i1 [ true, %32 ], [ %43, %38 ]
  br i1 %45, label %46, label %159

46:                                               ; preds = %44
  %47 = load i32, i32* %5, align 4
  %48 = sub nsw i32 %47, 1
  store i32 %48, i32* %4, align 4
  br label %49

49:                                               ; preds = %66, %46
  %50 = load i32, i32* %4, align 4
  %51 = load i32, i32* %2, align 4
  %52 = add nsw i32 %51, 1
  %53 = load i32, i32* %5, align 4
  %54 = sub nsw i32 %52, %53
  %55 = icmp slt i32 %50, %54
  br i1 %55, label %56, label %69

56:                                               ; preds = %49
  %57 = load i32, i32* %5, align 4
  %58 = sub nsw i32 %57, 1
  %59 = sext i32 %58 to i64
  %60 = getelementptr inbounds [100 x [100 x i32]], [100 x [100 x i32]]* %3, i64 0, i64 %59
  %61 = load i32, i32* %4, align 4
  %62 = sext i32 %61 to i64
  %63 = getelementptr inbounds [100 x i32], [100 x i32]* %60, i64 0, i64 %62
  %64 = load i32, i32* %63, align 4
  %65 = call i32 (i8*, ...) @printf(i8* getelementptr inbounds ([4 x i8], [4 x i8]* @.str.2, i64 0, i64 0), i32 %64)
  br label %66

66:                                               ; preds = %56
  %67 = load i32, i32* %4, align 4
  %68 = add nsw i32 %67, 1
  store i32 %68, i32* %4, align 4
  br label %49

69:                                               ; preds = %49
  %70 = load i32, i32* %5, align 4
  store i32 %70, i32* %4, align 4
  br label %71

71:                                               ; preds = %89, %69
  %72 = load i32, i32* %4, align 4
  %73 = load i32, i32* %1, align 4
  %74 = add nsw i32 %73, 1
  %75 = load i32, i32* %5, align 4
  %76 = sub nsw i32 %74, %75
  %77 = icmp slt i32 %72, %76
  br i1 %77, label %78, label %92

78:                                               ; preds = %71
  %79 = load i32, i32* %4, align 4
  %80 = sext i32 %79 to i64
  %81 = getelementptr inbounds [100 x [100 x i32]], [100 x [100 x i32]]* %3, i64 0, i64 %80
  %82 = load i32, i32* %2, align 4
  %83 = load i32, i32* %5, align 4
  %84 = sub nsw i32 %82, %83
  %85 = sext i32 %84 to i64
  %86 = getelementptr inbounds [100 x i32], [100 x i32]* %81, i64 0, i64 %85
  %87 = load i32, i32* %86, align 4
  %88 = call i32 (i8*, ...) @printf(i8* getelementptr inbounds ([4 x i8], [4 x i8]* @.str.2, i64 0, i64 0), i32 %87)
  br label %89

89:                                               ; preds = %78
  %90 = load i32, i32* %4, align 4
  %91 = add nsw i32 %90, 1
  store i32 %91, i32* %4, align 4
  br label %71

92:                                               ; preds = %71
  %93 = load i32, i32* %5, align 4
  %94 = load i32, i32* %1, align 4
  %95 = add nsw i32 %94, 1
  %96 = load i32, i32* %5, align 4
  %97 = sub nsw i32 %95, %96
  %98 = icmp sge i32 %93, %97
  br i1 %98, label %99, label %100

99:                                               ; preds = %92
  br label %159

100:                                              ; preds = %92
  %101 = load i32, i32* %2, align 4
  %102 = load i32, i32* %5, align 4
  %103 = sub nsw i32 %101, %102
  %104 = sub nsw i32 %103, 1
  store i32 %104, i32* %4, align 4
  br label %105

105:                                              ; preds = %121, %100
  %106 = load i32, i32* %4, align 4
  %107 = load i32, i32* %5, align 4
  %108 = sub nsw i32 %107, 1
  %109 = icmp sge i32 %106, %108
  br i1 %109, label %110, label %124

110:                                              ; preds = %105
  %111 = load i32, i32* %1, align 4
  %112 = load i32, i32* %5, align 4
  %113 = sub nsw i32 %111, %112
  %114 = sext i32 %113 to i64
  %115 = getelementptr inbounds [100 x [100 x i32]], [100 x [100 x i32]]* %3, i64 0, i64 %114
  %116 = load i32, i32* %4, align 4
  %117 = sext i32 %116 to i64
  %118 = getelementptr inbounds [100 x i32], [100 x i32]* %115, i64 0, i64 %117
  %119 = load i32, i32* %118, align 4
  %120 = call i32 (i8*, ...) @printf(i8* getelementptr inbounds ([4 x i8], [4 x i8]* @.str.2, i64 0, i64 0), i32 %119)
  br label %121

121:                                              ; preds = %110
  %122 = load i32, i32* %4, align 4
  %123 = add nsw i32 %122, -1
  store i32 %123, i32* %4, align 4
  br label %105

124:                                              ; preds = %105
  %125 = load i32, i32* %2, align 4
  %126 = load i32, i32* %5, align 4
  %127 = sub nsw i32 %125, %126
  %128 = sub nsw i32 %127, 1
  %129 = load i32, i32* %5, align 4
  %130 = sub nsw i32 %129, 1
  %131 = icmp slt i32 %128, %130
  br i1 %131, label %132, label %133

132:                                              ; preds = %124
  br label %159

133:                                              ; preds = %124
  %134 = load i32, i32* %1, align 4
  %135 = load i32, i32* %5, align 4
  %136 = sub nsw i32 %134, %135
  %137 = sub nsw i32 %136, 1
  store i32 %137, i32* %4, align 4
  br label %138

138:                                              ; preds = %152, %133
  %139 = load i32, i32* %4, align 4
  %140 = load i32, i32* %5, align 4
  %141 = icmp sge i32 %139, %140
  br i1 %141, label %142, label %155

142:                                              ; preds = %138
  %143 = load i32, i32* %4, align 4
  %144 = sext i32 %143 to i64
  %145 = getelementptr inbounds [100 x [100 x i32]], [100 x [100 x i32]]* %3, i64 0, i64 %144
  %146 = load i32, i32* %5, align 4
  %147 = sub nsw i32 %146, 1
  %148 = sext i32 %147 to i64
  %149 = getelementptr inbounds [100 x i32], [100 x i32]* %145, i64 0, i64 %148
  %150 = load i32, i32* %149, align 4
  %151 = call i32 (i8*, ...) @printf(i8* getelementptr inbounds ([4 x i8], [4 x i8]* @.str.2, i64 0, i64 0), i32 %150)
  br label %152

152:                                              ; preds = %142
  %153 = load i32, i32* %4, align 4
  %154 = add nsw i32 %153, -1
  store i32 %154, i32* %4, align 4
  br label %138

155:                                              ; preds = %138
  br label %156

156:                                              ; preds = %155
  %157 = load i32, i32* %5, align 4
  %158 = add nsw i32 %157, 1
  store i32 %158, i32* %5, align 4
  br label %32

159:                                              ; preds = %132, %99, %44
  ret void
}

declare dso_local i32 @__isoc99_scanf(i8*, ...) #1

declare dso_local i32 @printf(i8*, ...) #1


!llvm.module.flags = !{!0}
!llvm.ident = !{!1}

!0 = !{i32 1, !"wchar_size", i32 4}
!1 = !{!"clang version 10.0.0-4ubuntu1 "}
